; ModuleID = 'source-C-CXX/32/2657.c'
source_filename = "source-C-CXX/32/2657.c"
target datalayout = "e-m:e-p270:32:32-p271:32:32-p272:64:64-i64:64-f80:128-n8:16:32:64-S128"
target triple = "x86_64-pc-linux-gnu"

@.str = private unnamed_addr constant [3 x i8] c"%d\00", align 1
@.str.1 = private unnamed_addr constant [3 x i8] c"%s\00", align 1

; Function Attrs: nofree nounwind sspstrong uwtable
define dso_local i32 @main() local_unnamed_addr #0 {
  %1 = alloca [3000 x [300 x i8]], align 16
  %2 = alloca [300 x i8], align 16
  %3 = alloca i32, align 4
  %4 = getelementptr inbounds [3000 x [300 x i8]], [3000 x [300 x i8]]* %1, i64 0, i64 0, i64 0
  call void @llvm.lifetime.start.p0i8(i64 900000, i8* nonnull %4) #4
  %5 = getelementptr inbounds [300 x i8], [300 x i8]* %2, i64 0, i64 0
  call void @llvm.lifetime.start.p0i8(i64 300, i8* nonnull %5) #4
  %6 = bitcast i32* %3 to i8*
  call void @llvm.lifetime.start.p0i8(i64 4, i8* nonnull %6) #4
  %7 = call i32 (i8*, ...) @__isoc99_scanf(i8* getelementptr inbounds ([3 x i8], [3 x i8]* @.str, i64 0, i64 0), i32* nonnull %3)
  %8 = load i32, i32* %3, align 4, !tbaa !5
  %9 = icmp sgt i32 %8, 0
  br i1 %9, label %12, label %41

10:                                               ; preds = %12
  %11 = icmp sgt i32 %17, 0
  br i1 %11, label %20, label %41

12:                                               ; preds = %0, %12
  %13 = phi i64 [ %16, %12 ], [ 0, %0 ]
  %14 = getelementptr inbounds [3000 x [300 x i8]], [3000 x [300 x i8]]* %1, i64 0, i64 %13, i64 0
  %15 = call i32 (i8*, ...) @__isoc99_scanf(i8* getelementptr inbounds ([3 x i8], [3 x i8]* @.str.1, i64 0, i64 0), i8* nonnull %14)
  %16 = add nuw nsw i64 %13, 1
  %17 = load i32, i32* %3, align 4, !tbaa !5
  %18 = sext i32 %17 to i64
  %19 = icmp slt i64 %16, %18
  br i1 %19, label %12, label %10, !llvm.loop !9

20:                                               ; preds = %10, %33
  %21 = phi i64 [ %37, %33 ], [ 0, %10 ]
  br label %22

22:                                               ; preds = %20, %29
  %23 = phi i64 [ 0, %20 ], [ %32, %29 ]
  %24 = getelementptr inbounds [3000 x [300 x i8]], [3000 x [300 x i8]]* %1, i64 0, i64 %21, i64 %23
  %25 = load i8, i8* %24, align 1, !tbaa !11
  switch i8 %25, label %28 [
    i8 0, label %33
    i8 65, label %29
    i8 84, label %26
    i8 71, label %27
  ]

26:                                               ; preds = %22
  br label %29

27:                                               ; preds = %22
  br label %29

28:                                               ; preds = %22
  br label %29

29:                                               ; preds = %22, %27, %28, %26
  %30 = phi i8 [ 67, %27 ], [ 71, %28 ], [ 65, %26 ], [ 84, %22 ]
  %31 = getelementptr inbounds [300 x i8], [300 x i8]* %2, i64 0, i64 %23
  store i8 %30, i8* %31, align 1, !tbaa !11
  %32 = add nuw i64 %23, 1
  br label %22, !llvm.loop !12

33:                                               ; preds = %22
  %34 = and i64 %23, 4294967295
  %35 = getelementptr inbounds [300 x i8], [300 x i8]* %2, i64 0, i64 %34
  store i8 0, i8* %35, align 1, !tbaa !11
  %36 = call i32 @puts(i8* nonnull %5)
  %37 = add nuw nsw i64 %21, 1
  %38 = load i32, i32* %3, align 4, !tbaa !5
  %39 = sext i32 %38 to i64
  %40 = icmp slt i64 %37, %39
  br i1 %40, label %20, label %41, !llvm.loop !13

41:                                               ; preds = %33, %0, %10
  call void @llvm.lifetime.end.p0i8(i64 4, i8* nonnull %6) #4
  call void @llvm.lifetime.end.p0i8(i64 300, i8* nonnull %5) #4
  call void @llvm.lifetime.end.p0i8(i64 900000, i8* nonnull %4) #4
  ret i32 0
}

; Function Attrs: argmemonly mustprogress nofree nosync nounwind willreturn
declare void @llvm.lifetime.start.p0i8(i64 immarg, i8* nocapture) #1

; Function Attrs: nofree nounwind
declare noundef i32 @__isoc99_scanf(i8* nocapture noundef readonly, ...) local_unnamed_addr #2

; Function Attrs: argmemonly mustprogress nofree nosync nounwind willreturn
declare void @llvm.lifetime.end.p0i8(i64 immarg, i8* nocapture) #1

; Function Attrs: nofree nounwind
declare noundef i32 @puts(i8* nocapture noundef readonly) local_unnamed_addr #3


!llvm.module.flags = !{!0, !1, !2, !3}
!llvm.ident = !{!4}

!0 = !{i32 1, !"wchar_size", i32 4}
!1 = !{i32 7, !"PIC Level", i32 2}
!2 = !{i32 7, !"PIE Level", i32 2}
!3 = !{i32 7, !"uwtable", i32 1}
!4 = !{!"clang version 13.0.0"}
!5 = !{!6, !6, i64 0}
!6 = !{!"int", !7, i64 0}
!7 = !{!"omnipotent char", !8, i64 0}
!8 = !{!"Simple C/C++ TBAA"}
!9 = distinct !{!9, !10}
!10 = !{!"llvm.loop.mustprogress"}
!11 = !{!7, !7, i64 0}
!12 = distinct !{!12, !10}
!13 = distinct !{!13, !10}
